target datalayout = "e-m:e-p270:32:32-p271:32:32-p272:64:64-i64:64-i128:128-f80:128-n8:16:32:64-S128"
target triple = "x86_64-pc-linux-gnu"

%struct._lv_global_t = type { i8, i8, %struct.lv_ll_t, ptr, ptr, %struct.lv_ll_t, i8, i32, i32, ptr, %struct.lv_ll_t, ptr, %struct.lv_ll_t, ptr, ptr, i32, ptr, i8, i32, i32, ptr, i32, %struct.lv_timer_state_t, %struct.lv_anim_state_t, %struct.lv_tick_state_t, %struct._lv_draw_buf_handlers_t, %struct._lv_draw_buf_handlers_t, %struct._lv_draw_buf_handlers_t, %struct.lv_ll_t, ptr, ptr, %struct.lv_draw_global_info_t, [4 x %struct.lv_draw_sw_mask_radius_circle_dsc_t], ptr, ptr, ptr, %struct.lv_tlsf_state_t, %struct.lv_ll_t, ptr, ptr, %struct.lv_style_t, i64, ptr, i32, ptr }
%struct.lv_timer_state_t = type { %struct.lv_ll_t, i8, i8, i8, i8, i32, i8, i32, i32, i32, i32, ptr, ptr }
%struct.lv_anim_state_t = type { i8, i8, ptr, %struct.lv_ll_t }
%struct.lv_tick_state_t = type { i32, i8, ptr, ptr }
%struct._lv_draw_buf_handlers_t = type { ptr, ptr, ptr, ptr, ptr, ptr }
%struct.lv_draw_global_info_t = type { ptr, i32, i32, i32, i32, i8 }
%struct.lv_draw_sw_mask_radius_circle_dsc_t = type { ptr, ptr, ptr, ptr, i32, i32, i32 }
%struct.lv_tlsf_state_t = type { ptr, i64, i64, %struct.lv_ll_t }
%struct.lv_ll_t = type { i32, ptr, ptr }
%struct.lv_style_t = type { ptr, i32, i8 }
%struct._lv_fs_drv_t = type { i8, i32, ptr, ptr, ptr, ptr, ptr, ptr, ptr, ptr, ptr, ptr, ptr }

@lv_global = external global %struct._lv_global_t, align 8

; Function Attrs: nounwind uwtable
define ptr @lv_fs_get_drv(i8 noundef signext %0) #0 {
  %2 = alloca ptr, align 8
  %3 = alloca i8, align 1
  %4 = alloca ptr, align 8
  %5 = alloca i32, align 4
  store i8 %0, ptr %3, align 1, !tbaa !3
  call void @llvm.lifetime.start.p0(i64 8, ptr %4) #4
  %6 = call ptr @lv_ll_get_head(ptr noundef getelementptr inbounds nuw (%struct._lv_global_t, ptr @lv_global, i32 0, i32 37))
  store ptr %6, ptr %4, align 8, !tbaa !6
  br label %7

7:                                                ; preds = %23, %1
  %8 = load ptr, ptr %4, align 8, !tbaa !6
  %9 = icmp ne ptr %8, null
  br i1 %9, label %10, label %26

10:                                               ; preds = %7
  %11 = load ptr, ptr %4, align 8, !tbaa !6
  %12 = load ptr, ptr %11, align 8, !tbaa !6
  %13 = getelementptr inbounds nuw %struct._lv_fs_drv_t, ptr %12, i32 0, i32 0
  %14 = load i8, ptr %13, align 8, !tbaa !11
  %15 = sext i8 %14 to i32
  %16 = load i8, ptr %3, align 1, !tbaa !3
  %17 = sext i8 %16 to i32
  %18 = icmp eq i32 %15, %17
  br i1 %18, label %19, label %22

19:                                               ; preds = %10
  %20 = load ptr, ptr %4, align 8, !tbaa !6
  %21 = load ptr, ptr %20, align 8, !tbaa !6
  store ptr %21, ptr %2, align 8
  store i32 1, ptr %5, align 4
  br label %27

22:                                               ; preds = %10
  br label %23

23:                                               ; preds = %22
  %24 = load ptr, ptr %4, align 8, !tbaa !6
  %25 = call ptr @lv_ll_get_next(ptr noundef getelementptr inbounds nuw (%struct._lv_global_t, ptr @lv_global, i32 0, i32 37), ptr noundef %24)
  store ptr %25, ptr %4, align 8, !tbaa !6
  br label %7, !llvm.loop !12

26:                                               ; preds = %7
  store ptr null, ptr %2, align 8
  store i32 1, ptr %5, align 4
  br label %27

27:                                               ; preds = %26, %19
  call void @llvm.lifetime.end.p0(i64 8, ptr %4) #4
  %28 = load ptr, ptr %2, align 8
  ret ptr %28
}

; Function Attrs: nounwind uwtable
define zeroext i1 @lv_fs_is_ready(i8 noundef signext %0) #0 {
  %2 = alloca i1, align 1
  %3 = alloca i8, align 1
  %4 = alloca ptr, align 8
  %5 = alloca i32, align 4
  store i8 %0, ptr %3, align 1, !tbaa !3
  call void @llvm.lifetime.start.p0(i64 8, ptr %4) #4
  %6 = load i8, ptr %3, align 1, !tbaa !3
  %7 = call ptr @lv_fs_get_drv(i8 noundef signext %6)
  store ptr %7, ptr %4, align 8, !tbaa !6
  %8 = load ptr, ptr %4, align 8, !tbaa !6
  %9 = icmp eq ptr %8, null
  br i1 %9, label %10, label %11

10:                                               ; preds = %1
  store i1 false, ptr %2, align 1
  store i32 1, ptr %5, align 4
  br label %23

11:                                               ; preds = %1
  %12 = load ptr, ptr %4, align 8, !tbaa !6
  %13 = getelementptr inbounds nuw %struct._lv_fs_drv_t, ptr %12, i32 0, i32 2
  %14 = load ptr, ptr %13, align 8, !tbaa !8
  %15 = icmp eq ptr %14, null
  br i1 %15, label %16, label %17

16:                                               ; preds = %11
  store i1 true, ptr %2, align 1
  store i32 1, ptr %5, align 4
  br label %23

17:                                               ; preds = %11
  %18 = load ptr, ptr %4, align 8, !tbaa !6
  %19 = getelementptr inbounds nuw %struct._lv_fs_drv_t, ptr %18, i32 0, i32 2
  %20 = load ptr, ptr %19, align 8, !tbaa !8
  %21 = load ptr, ptr %4, align 8, !tbaa !6
  %22 = call zeroext i1 %20(ptr noundef %21)
  store i1 %22, ptr %2, align 1
  store i32 1, ptr %5, align 4
  br label %23

23:                                               ; preds = %17, %16, %10
  call void @llvm.lifetime.end.p0(i64 8, ptr %4) #4
  %24 = load i1, ptr %2, align 1
  ret i1 %24
}