; Function Attrs: nounwind uwtable
define zeroext i1 @lv_fs_is_ready(i8 noundef signext %0) local_unnamed_addr #0 {
  %2 = tail call ptr @lv_ll_get_head(ptr noundef nonnull getelementptr inbounds nuw (i8, ptr @lv_global, i64 832)) #6
  %.not6.i = icmp eq ptr %2, null
  br i1 %.not6.i, label %lv_fs_get_drv.exit.thread, label %.lr.ph.i

.lr.ph.i:                                         ; preds = %1, %6
  %.07.i = phi ptr [ %7, %6 ], [ %2, %1 ]
  %3 = load ptr, ptr %.07.i, align 8, !tbaa !3
  %4 = load i8, ptr %3, align 8, !tbaa !7
  %5 = icmp eq i8 %4, %0
  br i1 %5, label %lv_fs_get_drv.exit, label %6

6:                                                ; preds = %.lr.ph.i
  %7 = tail call ptr @lv_ll_get_next(ptr noundef nonnull getelementptr inbounds nuw (i8, ptr @lv_global, i64 832), ptr noundef nonnull %.07.i) #6
  %.not.i = icmp eq ptr %7, null
  br i1 %.not.i, label %lv_fs_get_drv.exit.thread, label %.lr.ph.i, !llvm.loop !10

lv_fs_get_drv.exit:                               ; preds = %.lr.ph.i
  %8 = getelementptr inbounds nuw i8, ptr %3, i64 8
  %9 = load ptr, ptr %8, align 8, !tbaa !12
  %10 = icmp eq ptr %9, null
  br i1 %10, label %lv_fs_get_drv.exit.thread, label %11

11:                                               ; preds = %lv_fs_get_drv.exit
  %12 = tail call zeroext i1 %9(ptr noundef nonnull %3) #6
  br label %lv_fs_get_drv.exit.thread

lv_fs_get_drv.exit.thread:                        ; preds = %6, %1, %lv_fs_get_drv.exit, %11
  %.0 = phi i1 [ %12, %11 ], [ true, %lv_fs_get_drv.exit ], [ false, %1 ], [ false, %6 ]
  ret i1 %.0
}